; ModuleID = '44/453.c'
source_filename = "44/453.c"
target datalayout = "e-m:e-p270:32:32-p271:32:32-p272:64:64-i64:64-f80:128-n8:16:32:64-S128"
target triple = "x86_64-pc-linux-gnu"

@.str = private unnamed_addr constant [3 x i8] c"%c\00", align 1
@.str.1 = private unnamed_addr constant [2 x i8] c"\0A\00", align 1
@num = common dso_local global [15 x i8] zeroinitializer, align 1

; Function Attrs: noinline nounwind uwtable
define dso_local i32 @reverse(i8* %0) #0 {
  %2 = alloca i32, align 4
  %3 = alloca i8*, align 8
  %4 = alloca i32, align 4
  %5 = alloca i32, align 4
  store i8* %0, i8** %3, align 8
  store i32 0, i32* %5, align 4
  %6 = load i8*, i8** %3, align 8
  %7 = getelementptr inbounds i8, i8* %6, i64 0
  %8 = load i8, i8* %7, align 1
  %9 = sext i8 %8 to i32
  %10 = icmp eq i32 %9, 45
  br i1 %10, label %11, label %13

11:                                               ; preds = %1
  %12 = call i32 (i8*, ...) @printf(i8* getelementptr inbounds ([3 x i8], [3 x i8]* @.str, i64 0, i64 0), i32 45)
  br label %13

13:                                               ; preds = %11, %1
  store i32 14, i32* %4, align 4
  br label %14

14:                                               ; preds = %65, %13
  %15 = load i32, i32* %4, align 4
  %16 = icmp sge i32 %15, 0
  br i1 %16, label %17, label %68

17:                                               ; preds = %14
  %18 = load i8*, i8** %3, align 8
  %19 = load i32, i32* %4, align 4
  %20 = sext i32 %19 to i64
  %21 = getelementptr inbounds i8, i8* %18, i64 %20
  %22 = load i8, i8* %21, align 1
  %23 = sext i8 %22 to i32
  %24 = icmp sge i32 %23, 48
  br i1 %24, label %25, label %64

25:                                               ; preds = %17
  %26 = load i8*, i8** %3, align 8
  %27 = load i32, i32* %4, align 4
  %28 = sext i32 %27 to i64
  %29 = getelementptr inbounds i8, i8* %26, i64 %28
  %30 = load i8, i8* %29, align 1
  %31 = sext i8 %30 to i32
  %32 = icmp sle i32 %31, 57
  br i1 %32, label %33, label %64

33:                                               ; preds = %25
  %34 = load i32, i32* %5, align 4
  %35 = icmp sgt i32 %34, 0
  br i1 %35, label %36, label %44

36:                                               ; preds = %33
  %37 = load i8*, i8** %3, align 8
  %38 = load i32, i32* %4, align 4
  %39 = sext i32 %38 to i64
  %40 = getelementptr inbounds i8, i8* %37, i64 %39
  %41 = load i8, i8* %40, align 1
  %42 = sext i8 %41 to i32
  %43 = call i32 (i8*, ...) @printf(i8* getelementptr inbounds ([3 x i8], [3 x i8]* @.str, i64 0, i64 0), i32 %42)
  br label %63

44:                                               ; preds = %33
  %45 = load i8*, i8** %3, align 8
  %46 = load i32, i32* %4, align 4
  %47 = sext i32 %46 to i64
  %48 = getelementptr inbounds i8, i8* %45, i64 %47
  %49 = load i8, i8* %48, align 1
  %50 = sext i8 %49 to i32
  %51 = icmp ne i32 %50, 48
  br i1 %51, label %52, label %62

52:                                               ; preds = %44
  %53 = load i32, i32* %5, align 4
  %54 = add nsw i32 %53, 1
  store i32 %54, i32* %5, align 4
  %55 = load i8*, i8** %3, align 8
  %56 = load i32, i32* %4, align 4
  %57 = sext i32 %56 to i64
  %58 = getelementptr inbounds i8, i8* %55, i64 %57
  %59 = load i8, i8* %58, align 1
  %60 = sext i8 %59 to i32
  %61 = call i32 (i8*, ...) @printf(i8* getelementptr inbounds ([3 x i8], [3 x i8]* @.str, i64 0, i64 0), i32 %60)
  br label %62

62:                                               ; preds = %52, %44
  br label %63

63:                                               ; preds = %62, %36
  br label %64

64:                                               ; preds = %63, %25, %17
  br label %65

65:                                               ; preds = %64
  %66 = load i32, i32* %4, align 4
  %67 = add nsw i32 %66, -1
  store i32 %67, i32* %4, align 4
  br label %14

68:                                               ; preds = %14
  %69 = call i32 (i8*, ...) @printf(i8* getelementptr inbounds ([2 x i8], [2 x i8]* @.str.1, i64 0, i64 0))
  %70 = load i32, i32* %2, align 4
  ret i32 %70
}

declare dso_local i32 @printf(i8*, ...) #1

; Function Attrs: noinline nounwind uwtable
define dso_local i32 @main() #0 {
  %1 = alloca i32, align 4
  %2 = alloca i32, align 4
  %3 = alloca i32, align 4
  store i32 0, i32* %1, align 4
  store i32 1, i32* %3, align 4
  br label %4

4:                                                ; preds = %21, %0
  %5 = load i32, i32* %3, align 4
  %6 = icmp slt i32 %5, 7
  br i1 %6, label %7, label %24

7:                                                ; preds = %4
  store i32 0, i32* %2, align 4
  br label %8

8:                                                ; preds = %15, %7
  %9 = load i32, i32* %2, align 4
  %10 = icmp sle i32 %9, 14
  br i1 %10, label %11, label %18

11:                                               ; preds = %8
  %12 = load i32, i32* %2, align 4
  %13 = sext i32 %12 to i64
  %14 = getelementptr inbounds [15 x i8], [15 x i8]* @num, i64 0, i64 %13
  store i8 0, i8* %14, align 1
  br label %15

15:                                               ; preds = %11
  %16 = load i32, i32* %2, align 4
  %17 = add nsw i32 %16, 1
  store i32 %17, i32* %2, align 4
  br label %8

18:                                               ; preds = %8
  %19 = call i32 (i8*, ...) bitcast (i32 (...)* @gets to i32 (i8*, ...)*)(i8* getelementptr inbounds ([15 x i8], [15 x i8]* @num, i64 0, i64 0))
  %20 = call i32 @reverse(i8* getelementptr inbounds ([15 x i8], [15 x i8]* @num, i64 0, i64 0))
  br label %21

21:                                               ; preds = %18
  %22 = load i32, i32* %3, align 4
  %23 = add nsw i32 %22, 1
  store i32 %23, i32* %3, align 4
  br label %4

24:                                               ; preds = %4
  %25 = call i32 @getchar()
  %26 = call i32 @getchar()
  %27 = call i32 @getchar()
  %28 = call i32 @getchar()
  %29 = call i32 @getchar()
  %30 = call i32 @getchar()
  %31 = call i32 @getchar()
  %32 = call i32 @getchar()
  %33 = call i32 @getchar()
  %34 = call i32 @getchar()
  %35 = load i32, i32* %1, align 4
  ret i32 %35
}

declare dso_local i32 @gets(...) #1

declare dso_local i32 @getchar() #1


!llvm.module.flags = !{!0}
!llvm.ident = !{!1}

!0 = !{i32 1, !"wchar_size", i32 4}
!1 = !{!"clang version 10.0.0-4ubuntu1 "}
